target datalayout = "e-m:e-p270:32:32-p271:32:32-p272:64:64-i64:64-i128:128-f80:128-n8:16:32:64-S128"
target triple = "x86_64-pc-linux-gnu"

; Function Attrs: mustprogress uwtable
define dso_local noundef i32 @_Z17luaL_checkintegerP9lua_Statei(ptr noundef %0, i32 noundef %1) #3 {
  %3 = alloca ptr, align 8
  %4 = alloca i32, align 4
  %5 = alloca i32, align 4
  %6 = alloca i32, align 4
  store ptr %0, ptr %3, align 8
  store i32 %1, ptr %4, align 4
  %7 = load ptr, ptr %3, align 8
  %8 = load i32, ptr %4, align 4
  %9 = call noundef i32 @_Z14lua_tointegerxP9lua_StateiPi(ptr noundef %7, i32 noundef %8, ptr noundef %5)
  store i32 %9, ptr %6, align 4
  %10 = load i32, ptr %5, align 4
  %11 = icmp ne i32 %10, 0
  br i1 %11, label %15, label %12

12:                                               ; preds = %2
  %13 = load ptr, ptr %3, align 8
  %14 = load i32, ptr %4, align 4
  call void @_ZL9tag_errorP9lua_Stateii(ptr noundef %13, i32 noundef %14, i32 noundef 3) #8
  unreachable

15:                                               ; preds = %2
  %16 = load i32, ptr %6, align 4
  ret i32 %16
}

; Function Attrs: mustprogress uwtable
define dso_local noundef i32 @_Z15luaL_optintegerP9lua_Stateii(ptr noundef %0, i32 noundef %1, i32 noundef %2) #3 {
  %4 = alloca ptr, align 8
  %5 = alloca i32, align 4
  %6 = alloca i32, align 4
  store ptr %0, ptr %4, align 8
  store i32 %1, ptr %5, align 4
  store i32 %2, ptr %6, align 4
  %7 = load ptr, ptr %4, align 8
  %8 = load i32, ptr %5, align 4
  %9 = call noundef i32 @_Z8lua_typeP9lua_Statei(ptr noundef %7, i32 noundef %8)
  %10 = icmp sle i32 %9, 0
  br i1 %10, label %11, label %13

11:                                               ; preds = %3
  %12 = load i32, ptr %6, align 4
  br label %17

13:                                               ; preds = %3
  %14 = load ptr, ptr %4, align 8
  %15 = load i32, ptr %5, align 4
  %16 = call noundef i32 @_Z17luaL_checkintegerP9lua_Statei(ptr noundef %14, i32 noundef %15)
  br label %17

17:                                               ; preds = %13, %11
  %18 = phi i32 [ %12, %11 ], [ %16, %13 ]
  ret i32 %18
}